; Function Attrs: mustprogress uwtable
define internal noundef i32 @_ZL7coyieldP9lua_State(ptr noundef %0) #0 {
  %2 = getelementptr inbounds i8, ptr %0, i64 8
  %3 = load ptr, ptr %2, align 8
  %4 = getelementptr inbounds i8, ptr %0, i64 16
  %5 = load ptr, ptr %4, align 8
  %6 = ptrtoint ptr %3 to i64
  %7 = ptrtoint ptr %5 to i64
  %8 = sub i64 %6, %7
  %9 = lshr exact i64 %8, 4
  %10 = trunc i64 %9 to i32
  %11 = tail call noundef i32 @_Z9lua_yieldP9lua_Statei(ptr noundef %0, i32 noundef %10)
  ret i32 %11
}